; ModuleID = 'source-C-CXX/42/1378.c'
source_filename = "source-C-CXX/42/1378.c"
target datalayout = "e-m:e-p270:32:32-p271:32:32-p272:64:64-i64:64-f80:128-n8:16:32:64-S128"
target triple = "x86_64-pc-linux-gnu"

%struct._IO_FILE = type { i32, i8*, i8*, i8*, i8*, i8*, i8*, i8*, i8*, i8*, i8*, i8*, %struct._IO_marker*, %struct._IO_FILE*, i32, i32, i64, i16, i8, [1 x i8], i8*, i64, %struct._IO_codecvt*, %struct._IO_wide_data*, %struct._IO_FILE*, i8*, i64, i32, [20 x i8] }
%struct._IO_marker = type opaque
%struct._IO_codecvt = type opaque
%struct._IO_wide_data = type opaque

@.str = private unnamed_addr constant [3 x i8] c"%d\00", align 1
@.str.1 = private unnamed_addr constant [7 x i8] c"%d %d\0A\00", align 1
@stdin = external local_unnamed_addr global %struct._IO_FILE*, align 8

; Function Attrs: nofree nounwind sspstrong uwtable
define dso_local i32 @sushu(i32 %0) local_unnamed_addr #0 {
  %2 = sitofp i32 %0 to double
  %3 = tail call double @sqrt(double %2) #4
  %4 = fptosi double %3 to i32
  %5 = icmp slt i32 %4, 2
  %6 = add i32 %4, 1
  br i1 %5, label %14, label %7

7:                                                ; preds = %1, %11
  %8 = phi i32 [ %12, %11 ], [ 2, %1 ]
  %9 = srem i32 %0, %8
  %10 = icmp eq i32 %9, 0
  br i1 %10, label %14, label %11

11:                                               ; preds = %7
  %12 = add nuw i32 %8, 1
  %13 = icmp eq i32 %8, %4
  br i1 %13, label %14, label %7, !llvm.loop !5

14:                                               ; preds = %11, %7, %1
  %15 = phi i32 [ 2, %1 ], [ %8, %7 ], [ %6, %11 ]
  %16 = icmp eq i32 %15, %6
  %17 = zext i1 %16 to i32
  ret i32 %17
}

; Function Attrs: argmemonly mustprogress nofree nosync nounwind willreturn
declare void @llvm.lifetime.start.p0i8(i64 immarg, i8* nocapture) #1

; Function Attrs: mustprogress nofree nounwind willreturn
declare double @sqrt(double) local_unnamed_addr #2

; Function Attrs: argmemonly mustprogress nofree nosync nounwind willreturn
declare void @llvm.lifetime.end.p0i8(i64 immarg, i8* nocapture) #1

; Function Attrs: nofree nounwind sspstrong uwtable
define dso_local i32 @main() local_unnamed_addr #0 {
  %1 = alloca i32, align 4
  %2 = bitcast i32* %1 to i8*
  call void @llvm.lifetime.start.p0i8(i64 4, i8* nonnull %2) #4
  %3 = call i32 (i8*, ...) @__isoc99_scanf(i8* getelementptr inbounds ([3 x i8], [3 x i8]* @.str, i64 0, i64 0), i32* nonnull %1)
  %4 = load i32, i32* %1, align 4, !tbaa !7
  %5 = icmp slt i32 %4, 6
  br i1 %5, label %50, label %6

6:                                                ; preds = %0, %45
  %7 = phi i32 [ %46, %45 ], [ 3, %0 ]
  %8 = sitofp i32 %7 to double
  %9 = call double @sqrt(double %8) #4
  %10 = fptosi double %9 to i32
  %11 = icmp slt i32 %10, 2
  %12 = add i32 %10, 1
  br i1 %11, label %20, label %13

13:                                               ; preds = %6, %17
  %14 = phi i32 [ %18, %17 ], [ 2, %6 ]
  %15 = urem i32 %7, %14
  %16 = icmp eq i32 %15, 0
  br i1 %16, label %20, label %17

17:                                               ; preds = %13
  %18 = add nuw i32 %14, 1
  %19 = icmp eq i32 %14, %10
  br i1 %19, label %23, label %13, !llvm.loop !5

20:                                               ; preds = %13, %6
  %21 = phi i32 [ 2, %6 ], [ %14, %13 ]
  %22 = icmp eq i32 %21, %12
  br i1 %22, label %23, label %45

23:                                               ; preds = %17, %20
  %24 = load i32, i32* %1, align 4, !tbaa !7
  %25 = sub nsw i32 %24, %7
  %26 = sitofp i32 %25 to double
  %27 = call double @sqrt(double %26) #4
  %28 = fptosi double %27 to i32
  %29 = icmp slt i32 %28, 2
  %30 = add i32 %28, 1
  br i1 %29, label %38, label %31

31:                                               ; preds = %23, %35
  %32 = phi i32 [ %36, %35 ], [ 2, %23 ]
  %33 = srem i32 %25, %32
  %34 = icmp eq i32 %33, 0
  br i1 %34, label %38, label %35

35:                                               ; preds = %31
  %36 = add nuw i32 %32, 1
  %37 = icmp eq i32 %32, %28
  br i1 %37, label %41, label %31, !llvm.loop !5

38:                                               ; preds = %31, %23
  %39 = phi i32 [ 2, %23 ], [ %32, %31 ]
  %40 = icmp eq i32 %39, %30
  br i1 %40, label %41, label %45

41:                                               ; preds = %35, %38
  %42 = load i32, i32* %1, align 4, !tbaa !7
  %43 = sub nsw i32 %42, %7
  %44 = call i32 (i8*, ...) @printf(i8* nonnull dereferenceable(1) getelementptr inbounds ([7 x i8], [7 x i8]* @.str.1, i64 0, i64 0), i32 %7, i32 %43)
  br label %45

45:                                               ; preds = %20, %38, %41
  %46 = add nuw nsw i32 %7, 1
  %47 = load i32, i32* %1, align 4, !tbaa !7
  %48 = sdiv i32 %47, 2
  %49 = icmp slt i32 %7, %48
  br i1 %49, label %6, label %50, !llvm.loop !11

50:                                               ; preds = %45, %0
  %51 = load %struct._IO_FILE*, %struct._IO_FILE** @stdin, align 8, !tbaa !12
  %52 = call i32 @getc(%struct._IO_FILE* %51) #4
  %53 = load %struct._IO_FILE*, %struct._IO_FILE** @stdin, align 8, !tbaa !12
  %54 = call i32 @getc(%struct._IO_FILE* %53) #4
  call void @llvm.lifetime.end.p0i8(i64 4, i8* nonnull %2) #4
  ret i32 0
}

; Function Attrs: nofree nounwind
declare noundef i32 @__isoc99_scanf(i8* nocapture noundef readonly, ...) local_unnamed_addr #3

; Function Attrs: nofree nounwind
declare noundef i32 @printf(i8* nocapture noundef readonly, ...) local_unnamed_addr #3

; Function Attrs: nofree nounwind
declare noundef i32 @getc(%struct._IO_FILE* nocapture noundef) local_unnamed_addr #3


!llvm.module.flags = !{!0, !1, !2, !3}
!llvm.ident = !{!4}

!0 = !{i32 1, !"wchar_size", i32 4}
!1 = !{i32 7, !"PIC Level", i32 2}
!2 = !{i32 7, !"PIE Level", i32 2}
!3 = !{i32 7, !"uwtable", i32 1}
!4 = !{!"clang version 13.0.0"}
!5 = distinct !{!5, !6}
!6 = !{!"llvm.loop.mustprogress"}
!7 = !{!8, !8, i64 0}
!8 = !{!"int", !9, i64 0}
!9 = !{!"omnipotent char", !10, i64 0}
!10 = !{!"Simple C/C++ TBAA"}
!11 = distinct !{!11, !6}
!12 = !{!13, !13, i64 0}
!13 = !{!"any pointer", !9, i64 0}
